target datalayout = "e-m:e-p270:32:32-p271:32:32-p272:64:64-i64:64-i128:128-f80:128-n8:16:32:64-S128"
target triple = "x86_64-pc-linux-gnu"

@.str.1 = private unnamed_addr constant [15 x i8] c"parse_coerce.c\00", align 1
@.str.50 = private unnamed_addr constant [43 x i8] c"argument types %s and %s cannot be matched\00", align 1
@__func__.select_common_type_from_oids = private unnamed_addr constant [29 x i8] c"select_common_type_from_oids\00", align 1

; Function Attrs: nounwind uwtable
define internal i32 @select_common_type_from_oids(i32 noundef %0, ptr noundef %1, i1 noundef zeroext %2) #0 {
  %4 = alloca i32, align 4
  %5 = alloca i32, align 4
  %6 = alloca ptr, align 8
  %7 = alloca i8, align 1
  %8 = alloca i32, align 4
  %9 = alloca i8, align 1
  %10 = alloca i8, align 1
  %11 = alloca i32, align 4
  %12 = alloca i32, align 4
  %13 = alloca i32, align 4
  %14 = alloca i8, align 1
  %15 = alloca i8, align 1
  store i32 %0, ptr %5, align 4
  store ptr %1, ptr %6, align 8
  %16 = zext i1 %2 to i8
  store i8 %16, ptr %7, align 1
  call void @llvm.lifetime.start.p0(i64 4, ptr %8) #6
  call void @llvm.lifetime.start.p0(i64 1, ptr %9) #6
  call void @llvm.lifetime.start.p0(i64 1, ptr %10) #6
  call void @llvm.lifetime.start.p0(i64 4, ptr %11) #6
  store i32 1, ptr %11, align 4
  %17 = load ptr, ptr %6, align 8
  %18 = getelementptr inbounds i32, ptr %17, i64 0
  %19 = load i32, ptr %18, align 4
  store i32 %19, ptr %8, align 4
  %20 = load i32, ptr %8, align 4
  %21 = icmp ne i32 %20, 705
  br i1 %21, label %22, label %47

22:                                               ; preds = %3
  br label %23

23:                                               ; preds = %37, %22
  %24 = load i32, ptr %11, align 4
  %25 = load i32, ptr %5, align 4
  %26 = icmp slt i32 %24, %25
  br i1 %26, label %27, label %40

27:                                               ; preds = %23
  %28 = load ptr, ptr %6, align 8
  %29 = load i32, ptr %11, align 4
  %30 = sext i32 %29 to i64
  %31 = getelementptr inbounds i32, ptr %28, i64 %30
  %32 = load i32, ptr %31, align 4
  %33 = load i32, ptr %8, align 4
  %34 = icmp ne i32 %32, %33
  br i1 %34, label %35, label %36

35:                                               ; preds = %27
  br label %40

36:                                               ; preds = %27
  br label %37

37:                                               ; preds = %36
  %38 = load i32, ptr %11, align 4
  %39 = add i32 %38, 1
  store i32 %39, ptr %11, align 4
  br label %23, !llvm.loop !15

40:                                               ; preds = %35, %23
  %41 = load i32, ptr %11, align 4
  %42 = load i32, ptr %5, align 4
  %43 = icmp eq i32 %41, %42
  br i1 %43, label %44, label %46

44:                                               ; preds = %40
  %45 = load i32, ptr %8, align 4
  store i32 %45, ptr %4, align 4
  store i32 1, ptr %12, align 4
  br label %136

46:                                               ; preds = %40
  br label %47

47:                                               ; preds = %46, %3
  %48 = load i32, ptr %8, align 4
  %49 = call i32 @getBaseType(i32 noundef %48)
  store i32 %49, ptr %8, align 4
  %50 = load i32, ptr %8, align 4
  call void @get_type_category_preferred(i32 noundef %50, ptr noundef %9, ptr noundef %10)
  br label %51

51:                                               ; preds = %127, %47
  %52 = load i32, ptr %11, align 4
  %53 = load i32, ptr %5, align 4
  %54 = icmp slt i32 %52, %53
  br i1 %54, label %55, label %130

55:                                               ; preds = %51
  call void @llvm.lifetime.start.p0(i64 4, ptr %13) #6
  %56 = load ptr, ptr %6, align 8
  %57 = load i32, ptr %11, align 4
  %58 = sext i32 %57 to i64
  %59 = getelementptr inbounds i32, ptr %56, i64 %58
  %60 = load i32, ptr %59, align 4
  %61 = call i32 @getBaseType(i32 noundef %60)
  store i32 %61, ptr %13, align 4
  %62 = load i32, ptr %13, align 4
  %63 = icmp ne i32 %62, 705
  br i1 %63, label %64, label %123

64:                                               ; preds = %55
  %65 = load i32, ptr %13, align 4
  %66 = load i32, ptr %8, align 4
  %67 = icmp ne i32 %65, %66
  br i1 %67, label %68, label %123

68:                                               ; preds = %64
  call void @llvm.lifetime.start.p0(i64 1, ptr %14) #6
  call void @llvm.lifetime.start.p0(i64 1, ptr %15) #6
  %69 = load i32, ptr %13, align 4
  call void @get_type_category_preferred(i32 noundef %69, ptr noundef %14, ptr noundef %15)
  %70 = load i32, ptr %8, align 4
  %71 = icmp eq i32 %70, 705
  br i1 %71, label %72, label %78

72:                                               ; preds = %68
  %73 = load i32, ptr %13, align 4
  store i32 %73, ptr %8, align 4
  %74 = load i8, ptr %14, align 1
  store i8 %74, ptr %9, align 1
  %75 = load i8, ptr %15, align 1, !range !7, !noundef !8
  %76 = trunc i8 %75 to i1
  %77 = zext i1 %76 to i8
  store i8 %77, ptr %10, align 1
  br label %119

78:                                               ; preds = %68
  %79 = load i8, ptr %14, align 1
  %80 = sext i8 %79 to i32
  %81 = load i8, ptr %9, align 1
  %82 = sext i8 %81 to i32
  %83 = icmp ne i32 %80, %82
  br i1 %83, label %84, label %104

84:                                               ; preds = %78
  %85 = load i8, ptr %7, align 1, !range !7, !noundef !8
  %86 = trunc i8 %85 to i1
  br i1 %86, label %87, label %88

87:                                               ; preds = %84
  store i32 0, ptr %4, align 4
  store i32 1, ptr %12, align 4
  br label %120

88:                                               ; preds = %84
  br label %89

89:                                               ; preds = %88
  br i1 true, label %90, label %92

90:                                               ; preds = %89
  %91 = call zeroext i1 @errstart_cold(i32 noundef 21, ptr noundef null) #7
  br i1 %91, label %94, label %101

92:                                               ; preds = %89
  %93 = call zeroext i1 @errstart(i32 noundef 21, ptr noundef null)
  br i1 %93, label %94, label %101

94:                                               ; preds = %92, %90
  %95 = call i32 @errcode(i32 noundef 67141764)
  %96 = load i32, ptr %8, align 4
  %97 = call ptr @format_type_be(i32 noundef %96)
  %98 = load i32, ptr %13, align 4
  %99 = call ptr @format_type_be(i32 noundef %98)
  %100 = call i32 (ptr, ...) @errmsg(ptr noundef @.str.50, ptr noundef %97, ptr noundef %99)
  call void @errfinish(ptr noundef @.str.1, i32 noundef 1536, ptr noundef @__func__.select_common_type_from_oids)
  br label %101

101:                                              ; preds = %94, %92, %90
  unreachable

102:                                              ; No predecessors!
  br label %103

103:                                              ; preds = %102
  br label %118

104:                                              ; preds = %78
  %105 = load i8, ptr %10, align 1, !range !7, !noundef !8
  %106 = trunc i8 %105 to i1
  br i1 %106, label %117, label %107

107:                                              ; preds = %104
  %108 = call zeroext i1 @can_coerce_type(i32 noundef 1, ptr noundef %8, ptr noundef %13, i32 noundef 0)
  br i1 %108, label %109, label %117

109:                                              ; preds = %107
  %110 = call zeroext i1 @can_coerce_type(i32 noundef 1, ptr noundef %13, ptr noundef %8, i32 noundef 0)
  br i1 %110, label %117, label %111

111:                                              ; preds = %109
  %112 = load i32, ptr %13, align 4
  store i32 %112, ptr %8, align 4
  %113 = load i8, ptr %14, align 1
  store i8 %113, ptr %9, align 1
  %114 = load i8, ptr %15, align 1, !range !7, !noundef !8
  %115 = trunc i8 %114 to i1
  %116 = zext i1 %115 to i8
  store i8 %116, ptr %10, align 1
  br label %117

117:                                              ; preds = %111, %109, %107, %104
  br label %118

118:                                              ; preds = %117, %103
  br label %119

119:                                              ; preds = %118, %72
  store i32 0, ptr %12, align 4
  br label %120

120:                                              ; preds = %119, %87
  call void @llvm.lifetime.end.p0(i64 1, ptr %15) #6
  call void @llvm.lifetime.end.p0(i64 1, ptr %14) #6
  %121 = load i32, ptr %12, align 4
  switch i32 %121, label %124 [
    i32 0, label %122
  ]

122:                                              ; preds = %120
  br label %123

123:                                              ; preds = %122, %64, %55
  store i32 0, ptr %12, align 4
  br label %124

124:                                              ; preds = %123, %120
  call void @llvm.lifetime.end.p0(i64 4, ptr %13) #6
  %125 = load i32, ptr %12, align 4
  switch i32 %125, label %136 [
    i32 0, label %126
  ]

126:                                              ; preds = %124
  br label %127

127:                                              ; preds = %126
  %128 = load i32, ptr %11, align 4
  %129 = add i32 %128, 1
  store i32 %129, ptr %11, align 4
  br label %51, !llvm.loop !16

130:                                              ; preds = %51
  %131 = load i32, ptr %8, align 4
  %132 = icmp eq i32 %131, 705
  br i1 %132, label %133, label %134

133:                                              ; preds = %130
  store i32 25, ptr %8, align 4
  br label %134

134:                                              ; preds = %133, %130
  %135 = load i32, ptr %8, align 4
  store i32 %135, ptr %4, align 4
  store i32 1, ptr %12, align 4
  br label %136

136:                                              ; preds = %134, %124, %44
  call void @llvm.lifetime.end.p0(i64 4, ptr %11) #6
  call void @llvm.lifetime.end.p0(i64 1, ptr %10) #6
  call void @llvm.lifetime.end.p0(i64 1, ptr %9) #6
  call void @llvm.lifetime.end.p0(i64 4, ptr %8) #6
  %137 = load i32, ptr %4, align 4
  ret i32 %137
}