; Function Attrs: nounwind uwtable
define internal fastcc i32 @select_common_type_from_oids(i32 noundef range(i32 1, -2147483648) %0, ptr noundef nonnull readonly captures(none) %1, i1 noundef zeroext %2) unnamed_addr #0 {
  %4 = alloca i32, align 4
  %5 = alloca i8, align 1
  %6 = alloca i8, align 1
  %7 = alloca i32, align 4
  %8 = alloca i8, align 1
  %9 = alloca i8, align 1
  call void @llvm.lifetime.start.p0(i64 4, ptr nonnull %4) #5
  call void @llvm.lifetime.start.p0(i64 1, ptr nonnull %5) #5
  call void @llvm.lifetime.start.p0(i64 1, ptr nonnull %6) #5
  %10 = load i32, ptr %1, align 4
  %.not = icmp eq i32 %10, 705
  br i1 %.not, label %17, label %.preheader

.preheader:                                       ; preds = %3
  %11 = icmp samesign ugt i32 %0, 1
  br i1 %11, label %.lr.ph.preheader, label %._crit_edge

.lr.ph.preheader:                                 ; preds = %.preheader
  %wide.trip.count = zext nneg i32 %0 to i64
  br label %.lr.ph

.lr.ph:                                           ; preds = %.lr.ph.preheader, %14
  %indvars.iv = phi i64 [ 1, %.lr.ph.preheader ], [ %indvars.iv.next, %14 ]
  %12 = getelementptr inbounds nuw i32, ptr %1, i64 %indvars.iv
  %13 = load i32, ptr %12, align 4
  %.not23 = icmp eq i32 %13, %10
  br i1 %.not23, label %14, label %._crit_edge.loopexit

14:                                               ; preds = %.lr.ph
  %indvars.iv.next = add nuw nsw i64 %indvars.iv, 1
  %exitcond.not = icmp eq i64 %indvars.iv.next, %wide.trip.count
  br i1 %exitcond.not, label %._crit_edge.thread, label %.lr.ph, !llvm.loop !14

._crit_edge.loopexit:                             ; preds = %.lr.ph
  %15 = trunc nuw nsw i64 %indvars.iv to i32
  br label %._crit_edge

._crit_edge:                                      ; preds = %._crit_edge.loopexit, %.preheader
  %.118.lcssa = phi i32 [ 1, %.preheader ], [ %15, %._crit_edge.loopexit ]
  %16 = icmp eq i32 %.118.lcssa, %0
  br i1 %16, label %._crit_edge.thread, label %17

17:                                               ; preds = %._crit_edge, %3
  %.017 = phi i32 [ %.118.lcssa, %._crit_edge ], [ 1, %3 ]
  %18 = tail call i32 @getBaseType(i32 noundef %10) #5
  store i32 %18, ptr %4, align 4
  call void @get_type_category_preferred(i32 noundef %18, ptr noundef nonnull %5, ptr noundef nonnull %6) #5
  %19 = icmp samesign ult i32 %.017, %0
  br i1 %19, label %.lr.ph34.preheader, label %._crit_edge35

.lr.ph34.preheader:                               ; preds = %17
  %20 = zext nneg i32 %.017 to i64
  %wide.trip.count40 = zext nneg i32 %0 to i64
  br label %.lr.ph34

.lr.ph34:                                         ; preds = %.lr.ph34.preheader, %48
  %21 = phi i32 [ %18, %.lr.ph34.preheader ], [ %49, %48 ]
  %indvars.iv37 = phi i64 [ %20, %.lr.ph34.preheader ], [ %indvars.iv.next38, %48 ]
  call void @llvm.lifetime.start.p0(i64 4, ptr nonnull %7) #5
  %22 = getelementptr inbounds nuw i32, ptr %1, i64 %indvars.iv37
  %23 = load i32, ptr %22, align 4
  %24 = call i32 @getBaseType(i32 noundef %23) #5
  store i32 %24, ptr %7, align 4
  %.not24 = icmp eq i32 %24, 705
  %.not25 = icmp eq i32 %24, %21
  %or.cond = select i1 %.not24, i1 true, i1 %.not25
  br i1 %or.cond, label %48, label %25

25:                                               ; preds = %.lr.ph34
  call void @llvm.lifetime.start.p0(i64 1, ptr nonnull %8) #5
  call void @llvm.lifetime.start.p0(i64 1, ptr nonnull %9) #5
  call void @get_type_category_preferred(i32 noundef %24, ptr noundef nonnull %8, ptr noundef nonnull %9) #5
  %26 = icmp eq i32 %21, 705
  br i1 %26, label %.sink.split, label %27

27:                                               ; preds = %25
  %28 = load i8, ptr %8, align 1
  %29 = load i8, ptr %5, align 1
  %.not26 = icmp eq i8 %28, %29
  br i1 %.not26, label %37, label %30

30:                                               ; preds = %27
  br i1 %2, label %.critedge, label %31

31:                                               ; preds = %30
  %32 = call zeroext i1 @errstart_cold(i32 noundef 21, ptr noundef null) #6
  call void @llvm.assume(i1 %32)
  %33 = call i32 @errcode(i32 noundef 67141764) #5
  %34 = call ptr @format_type_be(i32 noundef %21) #5
  %35 = call ptr @format_type_be(i32 noundef %24) #5
  %36 = call i32 (ptr, ...) @errmsg(ptr noundef nonnull @.str.50, ptr noundef %34, ptr noundef %35) #5
  call void @errfinish(ptr noundef nonnull @.str.1, i32 noundef 1536, ptr noundef nonnull @__func__.select_common_type_from_oids) #5
  unreachable

37:                                               ; preds = %27
  %38 = load i8, ptr %6, align 1, !range !7, !noundef !8
  %39 = trunc nuw i8 %38 to i1
  br i1 %39, label %46, label %40

40:                                               ; preds = %37
  %41 = call zeroext i1 @can_coerce_type(i32 noundef 1, ptr noundef nonnull %4, ptr noundef nonnull %7, i32 noundef 0)
  br i1 %41, label %42, label %46

42:                                               ; preds = %40
  %43 = call zeroext i1 @can_coerce_type(i32 noundef 1, ptr noundef nonnull %7, ptr noundef nonnull %4, i32 noundef 0)
  br i1 %43, label %46, label %.sink.split

.sink.split:                                      ; preds = %42, %25
  store i32 %24, ptr %4, align 4
  %44 = load i8, ptr %8, align 1
  store i8 %44, ptr %5, align 1
  %45 = load i8, ptr %9, align 1, !range !7, !noundef !8
  store i8 %45, ptr %6, align 1
  br label %46

46:                                               ; preds = %.sink.split, %37, %40, %42
  %47 = phi i32 [ %24, %.sink.split ], [ %21, %37 ], [ %21, %40 ], [ %21, %42 ]
  call void @llvm.lifetime.end.p0(i64 1, ptr nonnull %9) #5
  call void @llvm.lifetime.end.p0(i64 1, ptr nonnull %8) #5
  br label %48

.critedge:                                        ; preds = %30
  call void @llvm.lifetime.end.p0(i64 1, ptr nonnull %9) #5
  call void @llvm.lifetime.end.p0(i64 1, ptr nonnull %8) #5
  call void @llvm.lifetime.end.p0(i64 4, ptr nonnull %7) #5
  br label %._crit_edge.thread

48:                                               ; preds = %.lr.ph34, %46
  %49 = phi i32 [ %21, %.lr.ph34 ], [ %47, %46 ]
  call void @llvm.lifetime.end.p0(i64 4, ptr nonnull %7) #5
  %indvars.iv.next38 = add nuw nsw i64 %indvars.iv37, 1
  %exitcond41.not = icmp eq i64 %indvars.iv.next38, %wide.trip.count40
  br i1 %exitcond41.not, label %._crit_edge35, label %.lr.ph34, !llvm.loop !15

._crit_edge35:                                    ; preds = %48, %17
  %50 = phi i32 [ %18, %17 ], [ %49, %48 ]
  %51 = icmp eq i32 %50, 705
  %spec.select = select i1 %51, i32 25, i32 %50
  br label %._crit_edge.thread

._crit_edge.thread:                               ; preds = %14, %._crit_edge35, %._crit_edge, %.critedge
  %.019 = phi i32 [ 0, %.critedge ], [ %10, %._crit_edge ], [ %spec.select, %._crit_edge35 ], [ %10, %14 ]
  call void @llvm.lifetime.end.p0(i64 1, ptr nonnull %6) #5
  call void @llvm.lifetime.end.p0(i64 1, ptr nonnull %5) #5
  call void @llvm.lifetime.end.p0(i64 4, ptr nonnull %4) #5
  ret i32 %.019
}